target datalayout = "e-m:e-p270:32:32-p271:32:32-p272:64:64-i64:64-i128:128-f80:128-n8:16:32:64-S128"
target triple = "x86_64-pc-linux-gnu"

%"struct.vcpkg::StringLiteral" = type { %"struct.vcpkg::ZStringView" }
%"struct.vcpkg::ZStringView" = type { %"struct.vcpkg::StringView" }
%"struct.vcpkg::StringView" = type { ptr, i64 }
%"struct.vcpkg::LineInfo" = type { i32, ptr }

@.str = private unnamed_addr constant [123 x i8] c"generated/home/dtcxzyw/WorkSpace/Projects/compilers/llvm-opt-benchmark/bench/vcpkg/vcpkg-tool/src/vcpkg/commands.build.cpp\00", align 1
@_ZN5vcpkg31CMakeVariablePolicyEmptyPackageE = linkonce_odr dso_local constant { ptr, i64 } { ptr @.str.102, i64 26 }, comdat, align 8
@_ZN5vcpkg34CMakeVariablePolicyDllsWithoutLibsE = linkonce_odr dso_local constant { ptr, i64 } { ptr @.str.104, i64 30 }, comdat, align 8
@_ZN5vcpkg37CMakeVariablePolicyDllsWithoutExportsE = linkonce_odr dso_local constant { ptr, i64 } { ptr @.str.106, i64 33 }, comdat, align 8
@_ZN5vcpkg38CMakeVariablePolicyDllsInStaticLibraryE = linkonce_odr dso_local constant { ptr, i64 } { ptr @.str.108, i64 35 }, comdat, align 8
@_ZN5vcpkg45CMakeVariablePolicyMismatchedNumberOfBinariesE = linkonce_odr dso_local constant { ptr, i64 } { ptr @.str.110, i64 42 }, comdat, align 8
@_ZN5vcpkg33CMakeVariablePolicyOnlyReleaseCrtE = linkonce_odr dso_local constant { ptr, i64 } { ptr @.str.112, i64 29 }, comdat, align 8
@_ZN5vcpkg37CMakeVariablePolicyEmptyIncludeFolderE = linkonce_odr dso_local constant { ptr, i64 } { ptr @.str.114, i64 33 }, comdat, align 8
@_ZN5vcpkg38CMakeVariablePolicyAllowObsoleteMsvcrtE = linkonce_odr dso_local constant { ptr, i64 } { ptr @.str.116, i64 34 }, comdat, align 8
@_ZN5vcpkg41CMakeVariablePolicyAllowRestrictedHeadersE = linkonce_odr dso_local constant { ptr, i64 } { ptr @.str.118, i64 37 }, comdat, align 8
@_ZN5vcpkg36CMakeVariablePolicySkipDumpbinChecksE = linkonce_odr dso_local constant { ptr, i64 } { ptr @.str.120, i64 32 }, comdat, align 8
@_ZN5vcpkg40CMakeVariablePolicySkipArchitectureCheckE = linkonce_odr dso_local constant { ptr, i64 } { ptr @.str.122, i64 36 }, comdat, align 8
@_ZN5vcpkg34CMakeVariablePolicyCMakeHelperPortE = linkonce_odr dso_local constant { ptr, i64 } { ptr @.str.124, i64 30 }, comdat, align 8
@_ZN5vcpkg41CMakeVariablePolicySkipAbsolutePathsCheckE = linkonce_odr dso_local constant { ptr, i64 } { ptr @.str.126, i64 38 }, comdat, align 8

; Function Attrs: mustprogress uwtable
define dso_local { ptr, i64 } @_ZN5vcpkg17to_cmake_variableENS_11BuildPolicyE(i32 noundef %0) #0 {
  %2 = alloca %"struct.vcpkg::StringLiteral", align 8
  %3 = alloca i32, align 4
  %4 = alloca %"struct.vcpkg::LineInfo", align 8
  store i32 %0, ptr %3, align 4
  %5 = load i32, ptr %3, align 4
  switch i32 %5, label %19 [
    i32 0, label %6
    i32 1, label %7
    i32 2, label %8
    i32 3, label %9
    i32 4, label %10
    i32 5, label %11
    i32 6, label %12
    i32 7, label %13
    i32 8, label %14
    i32 9, label %15
    i32 10, label %16
    i32 11, label %17
    i32 12, label %18
  ]

6:                                                ; preds = %1
  call void @llvm.memcpy.p0.p0.i64(ptr align 8 %2, ptr align 8 @_ZN5vcpkg31CMakeVariablePolicyEmptyPackageE, i64 16, i1 false)
  br label %22

7:                                                ; preds = %1
  call void @llvm.memcpy.p0.p0.i64(ptr align 8 %2, ptr align 8 @_ZN5vcpkg34CMakeVariablePolicyDllsWithoutLibsE, i64 16, i1 false)
  br label %22

8:                                                ; preds = %1
  call void @llvm.memcpy.p0.p0.i64(ptr align 8 %2, ptr align 8 @_ZN5vcpkg37CMakeVariablePolicyDllsWithoutExportsE, i64 16, i1 false)
  br label %22

9:                                                ; preds = %1
  call void @llvm.memcpy.p0.p0.i64(ptr align 8 %2, ptr align 8 @_ZN5vcpkg38CMakeVariablePolicyDllsInStaticLibraryE, i64 16, i1 false)
  br label %22

10:                                               ; preds = %1
  call void @llvm.memcpy.p0.p0.i64(ptr align 8 %2, ptr align 8 @_ZN5vcpkg45CMakeVariablePolicyMismatchedNumberOfBinariesE, i64 16, i1 false)
  br label %22

11:                                               ; preds = %1
  call void @llvm.memcpy.p0.p0.i64(ptr align 8 %2, ptr align 8 @_ZN5vcpkg33CMakeVariablePolicyOnlyReleaseCrtE, i64 16, i1 false)
  br label %22

12:                                               ; preds = %1
  call void @llvm.memcpy.p0.p0.i64(ptr align 8 %2, ptr align 8 @_ZN5vcpkg37CMakeVariablePolicyEmptyIncludeFolderE, i64 16, i1 false)
  br label %22

13:                                               ; preds = %1
  call void @llvm.memcpy.p0.p0.i64(ptr align 8 %2, ptr align 8 @_ZN5vcpkg38CMakeVariablePolicyAllowObsoleteMsvcrtE, i64 16, i1 false)
  br label %22

14:                                               ; preds = %1
  call void @llvm.memcpy.p0.p0.i64(ptr align 8 %2, ptr align 8 @_ZN5vcpkg41CMakeVariablePolicyAllowRestrictedHeadersE, i64 16, i1 false)
  br label %22

15:                                               ; preds = %1
  call void @llvm.memcpy.p0.p0.i64(ptr align 8 %2, ptr align 8 @_ZN5vcpkg36CMakeVariablePolicySkipDumpbinChecksE, i64 16, i1 false)
  br label %22

16:                                               ; preds = %1
  call void @llvm.memcpy.p0.p0.i64(ptr align 8 %2, ptr align 8 @_ZN5vcpkg40CMakeVariablePolicySkipArchitectureCheckE, i64 16, i1 false)
  br label %22

17:                                               ; preds = %1
  call void @llvm.memcpy.p0.p0.i64(ptr align 8 %2, ptr align 8 @_ZN5vcpkg34CMakeVariablePolicyCMakeHelperPortE, i64 16, i1 false)
  br label %22

18:                                               ; preds = %1
  call void @llvm.memcpy.p0.p0.i64(ptr align 8 %2, ptr align 8 @_ZN5vcpkg41CMakeVariablePolicySkipAbsolutePathsCheckE, i64 16, i1 false)
  br label %22

19:                                               ; preds = %1
  %20 = getelementptr inbounds %"struct.vcpkg::LineInfo", ptr %4, i32 0, i32 0
  store i32 245, ptr %20, align 8
  %21 = getelementptr inbounds %"struct.vcpkg::LineInfo", ptr %4, i32 0, i32 1
  store ptr @.str, ptr %21, align 8
  call void @_ZN5vcpkg6Checks11unreachableERKNS_8LineInfoE(ptr noundef nonnull align 8 dereferenceable(16) %4) #20
  unreachable

22:                                               ; preds = %18, %17, %16, %15, %14, %13, %12, %11, %10, %9, %8, %7, %6
  %23 = getelementptr inbounds %"struct.vcpkg::StringLiteral", ptr %2, i32 0, i32 0
  %24 = getelementptr inbounds %"struct.vcpkg::ZStringView", ptr %23, i32 0, i32 0
  %25 = load { ptr, i64 }, ptr %24, align 8
  ret { ptr, i64 } %25
}