; Function Attrs: mustprogress uwtable
define dso_local { ptr, i64 } @_ZN5vcpkg17to_cmake_variableENS_11BuildPolicyE(i32 noundef %0) local_unnamed_addr #2 {
  %2 = alloca %"struct.vcpkg::LineInfo", align 8
  %3 = icmp ult i32 %0, 13
  br i1 %3, label %switch.lookup, label %4

4:                                                ; preds = %1
  store i32 245, ptr %2, align 8
  %5 = getelementptr inbounds i8, ptr %2, i64 8
  store ptr @.str, ptr %5, align 8
  call void @_ZN5vcpkg6Checks11unreachableERKNS_8LineInfoE(ptr noundef nonnull align 8 dereferenceable(16) %2) #24
  unreachable

switch.lookup:                                    ; preds = %1
  %6 = zext nneg i32 %0 to i64
  %switch.gep = getelementptr inbounds [13 x ptr], ptr @switch.table._ZN5vcpkg17to_cmake_variableENS_11BuildPolicyE, i64 0, i64 %6
  %switch.load = load ptr, ptr %switch.gep, align 8
  %7 = zext nneg i32 %0 to i64
  %switch.gep25 = getelementptr inbounds [13 x i64], ptr @switch.table._ZN5vcpkg17to_cmake_variableENS_11BuildPolicyE.49, i64 0, i64 %7
  %switch.load26 = load i64, ptr %switch.gep25, align 8
  %.fca.0.insert = insertvalue { ptr, i64 } poison, ptr %switch.load, 0
  %.fca.1.insert = insertvalue { ptr, i64 } %.fca.0.insert, i64 %switch.load26, 1
  ret { ptr, i64 } %.fca.1.insert
}